; Function Attrs: mustprogress uwtable
define void @_ZN7Imf_3_47ContextC2EPKcRKNS_18ContextInitializerENS0_12write_mode_tE(ptr noundef nonnull align 8 dereferenceable(16) initializes((0, 16)) %0, ptr noundef %1, ptr noundef nonnull align 8 dereferenceable(120) %2) unnamed_addr #3 align 2 personality ptr @__gxx_personality_v0 {
  %4 = alloca %"class.std::__cxx11::basic_stringstream", align 8
  tail call void @_ZN7Imf_3_47ContextC2Ev(ptr noundef nonnull align 8 dereferenceable(16) %0)
  %5 = load ptr, ptr %0, align 8, !tbaa !8
  %6 = invoke i32 @exr_start_write(ptr noundef %5, ptr noundef %1, i32 noundef 0, ptr noundef nonnull %2)
          to label %7 unwind label %18

7:                                                ; preds = %3
  %.not = icmp eq i32 %6, 0
  br i1 %.not, label %28, label %8

8:                                                ; preds = %7
  invoke void @_Z13iex_debugTrapv()
          to label %9 unwind label %18

9:                                                ; preds = %8
  call void @llvm.lifetime.start.p0(i64 392, ptr nonnull %4) #30
  invoke void @_ZNSt7__cxx1118basic_stringstreamIcSt11char_traitsIcESaIcEEC1Ev(ptr noundef nonnull align 8 dereferenceable(128) %4)
          to label %10 unwind label %20

10:                                               ; preds = %9
  %11 = getelementptr inbounds nuw i8, ptr %4, i64 16
  %12 = invoke noundef nonnull align 8 dereferenceable(8) ptr @_ZSt16__ostream_insertIcSt11char_traitsIcEERSt13basic_ostreamIT_T0_ES6_PKS3_l(ptr noundef nonnull align 8 dereferenceable(8) %11, ptr noundef nonnull @.str.2, i64 noundef 16)
          to label %_ZStlsISt11char_traitsIcEERSt13basic_ostreamIcT_ES5_PKc.exit unwind label %22

_ZStlsISt11char_traitsIcEERSt13basic_ostreamIcT_ES5_PKc.exit: ; preds = %10
  %13 = invoke noundef nonnull align 8 dereferenceable(8) ptr @_ZStlsISt11char_traitsIcEERSt13basic_ostreamIcT_ES5_PKc(ptr noundef nonnull align 8 dereferenceable(8) %11, ptr noundef %1)
          to label %14 unwind label %22

14:                                               ; preds = %_ZStlsISt11char_traitsIcEERSt13basic_ostreamIcT_ES5_PKc.exit
  %15 = invoke noundef nonnull align 8 dereferenceable(8) ptr @_ZSt16__ostream_insertIcSt11char_traitsIcEERSt13basic_ostreamIT_T0_ES6_PKS3_l(ptr noundef nonnull align 8 dereferenceable(8) %13, ptr noundef nonnull @.str.4, i64 noundef 11)
          to label %_ZStlsISt11char_traitsIcEERSt13basic_ostreamIcT_ES5_PKc.exit11 unwind label %22

_ZStlsISt11char_traitsIcEERSt13basic_ostreamIcT_ES5_PKc.exit11: ; preds = %14
  %16 = call ptr @__cxa_allocate_exception(i64 72) #30
  invoke void @_ZN7Iex_3_48InputExcC1ERNSt7__cxx1118basic_stringstreamIcSt11char_traitsIcESaIcEEE(ptr noundef nonnull align 8 dereferenceable(72) %16, ptr noundef nonnull align 8 dereferenceable(128) %4)
          to label %17 unwind label %24

17:                                               ; preds = %_ZStlsISt11char_traitsIcEERSt13basic_ostreamIcT_ES5_PKc.exit11
  invoke void @__cxa_throw(ptr nonnull %16, ptr nonnull @_ZTIN7Iex_3_48InputExcE, ptr nonnull @_ZN7Iex_3_48InputExcD1Ev) #32
          to label %30 unwind label %22

18:                                               ; preds = %8, %3
  %19 = landingpad { ptr, i32 }
          cleanup
  br label %29

20:                                               ; preds = %9
  %21 = landingpad { ptr, i32 }
          cleanup
  br label %27

22:                                               ; preds = %14, %10, %17, %_ZStlsISt11char_traitsIcEERSt13basic_ostreamIcT_ES5_PKc.exit
  %23 = landingpad { ptr, i32 }
          cleanup
  br label %26

24:                                               ; preds = %_ZStlsISt11char_traitsIcEERSt13basic_ostreamIcT_ES5_PKc.exit11
  %25 = landingpad { ptr, i32 }
          cleanup
  call void @__cxa_free_exception(ptr nonnull %16) #30
  br label %26

26:                                               ; preds = %24, %22
  %.pn = phi { ptr, i32 } [ %23, %22 ], [ %25, %24 ]
  call void @_ZNSt7__cxx1118basic_stringstreamIcSt11char_traitsIcESaIcEED1Ev(ptr noundef nonnull align 8 dereferenceable(128) %4) #30
  br label %27

27:                                               ; preds = %26, %20
  %.pn.pn = phi { ptr, i32 } [ %.pn, %26 ], [ %21, %20 ]
  call void @llvm.lifetime.end.p0(i64 392, ptr nonnull %4) #30
  br label %29

28:                                               ; preds = %7
  ret void

29:                                               ; preds = %27, %18
  %.pn.pn.pn = phi { ptr, i32 } [ %.pn.pn, %27 ], [ %19, %18 ]
  call void @_ZN7Imf_3_47ContextD2Ev(ptr noundef nonnull align 8 dereferenceable(16) %0) #30
  resume { ptr, i32 } %.pn.pn.pn

30:                                               ; preds = %17
  unreachable
}